target datalayout = "e-m:e-p270:32:32-p271:32:32-p272:64:64-i64:64-i128:128-f80:128-n8:16:32:64-S128"
target triple = "x86_64-pc-linux-gnu"

%"class.cxx20::expected.303" = type { %"struct.cxx20::detail::expected_move_assign_base.304" }
%"struct.cxx20::detail::expected_move_assign_base.304" = type { %"struct.cxx20::detail::expected_copy_assign_base.305" }
%"struct.cxx20::detail::expected_copy_assign_base.305" = type { %"struct.cxx20::detail::expected_move_base.306" }
%"struct.cxx20::detail::expected_move_base.306" = type { %"struct.cxx20::detail::expected_copy_base.307" }
%"struct.cxx20::detail::expected_copy_base.307" = type { %"struct.cxx20::detail::expected_operations_base.308" }
%"struct.cxx20::detail::expected_operations_base.308" = type { %"struct.cxx20::detail::expected_view_base.309" }
%"struct.cxx20::detail::expected_view_base.309" = type { %"struct.cxx20::detail::expected_storage_base.310" }
%"struct.cxx20::detail::expected_storage_base.310" = type { i8, %union.anon.311 }
%union.anon.311 = type { i32 }

; Function Attrs: mustprogress nounwind uwtable
define void @_ZN8WasmEdge8Executor8Executor18memoryAtomicNotifyERNS_7Runtime12StackManagerEjjj(ptr dead_on_unwind noalias writable sret(%"class.cxx20::expected.303") align 4 %0, ptr noundef nonnull align 8 dereferenceable(408) %1, ptr noundef nonnull align 8 dereferenceable(48) %2, i32 noundef %3, i32 noundef %4, i32 noundef %5) #2 align 2 personality ptr @__gxx_personality_v0 {
  %7 = alloca ptr, align 8
  %8 = alloca ptr, align 8
  %9 = alloca ptr, align 8
  %10 = alloca i32, align 4
  %11 = alloca i32, align 4
  %12 = alloca i32, align 4
  %13 = alloca ptr, align 8
  store ptr %0, ptr %7, align 8
  store ptr %1, ptr %8, align 8
  store ptr %2, ptr %9, align 8
  store i32 %3, ptr %10, align 4
  store i32 %4, ptr %11, align 4
  store i32 %5, ptr %12, align 4
  %14 = load ptr, ptr %8, align 8
  %15 = load ptr, ptr %9, align 8
  %16 = load i32, ptr %10, align 4
  %17 = invoke noundef ptr @_ZNK8WasmEdge8Executor8Executor15getMemInstByIdxERNS_7Runtime12StackManagerEj(ptr noundef nonnull align 8 dereferenceable(408) %14, ptr noundef nonnull align 8 dereferenceable(48) %15, i32 noundef %16)
          to label %18 unwind label %28

18:                                               ; preds = %6
  store ptr %17, ptr %13, align 8
  %19 = load ptr, ptr %13, align 8
  %20 = icmp ne ptr %19, null
  br i1 %20, label %21, label %22

21:                                               ; preds = %18
  br label %24

22:                                               ; preds = %18
  unreachable

23:                                               ; No predecessors!
  br label %24

24:                                               ; preds = %23, %21
  %25 = load ptr, ptr %13, align 8
  %26 = load i32, ptr %11, align 4
  %27 = load i32, ptr %12, align 4
  call void @_ZN8WasmEdge8Executor8Executor12atomicNotifyERNS_7Runtime8Instance14MemoryInstanceEjj(ptr dead_on_unwind writable sret(%"class.cxx20::expected.303") align 4 %0, ptr noundef nonnull align 8 dereferenceable(408) %14, ptr noundef nonnull align 8 dereferenceable(28) %25, i32 noundef %26, i32 noundef %27) #18
  ret void

28:                                               ; preds = %6
  %29 = landingpad { ptr, i32 }
          catch ptr null
  %30 = extractvalue { ptr, i32 } %29, 0
  call void @__clang_call_terminate(ptr %30) #20
  unreachable
}