; Function Attrs: mustprogress nounwind uwtable
define void @_ZN8WasmEdge8Executor8Executor18memoryAtomicNotifyERNS_7Runtime12StackManagerEjjj(ptr dead_on_unwind noalias writable sret(%"class.cxx20::expected.303") align 4 %0, ptr noundef nonnull align 8 dereferenceable(408) %1, ptr noundef nonnull align 8 dereferenceable(48) %2, i32 noundef %3, i32 noundef %4, i32 noundef %5) local_unnamed_addr #4 align 2 personality ptr @__gxx_personality_v0 {
  %7 = invoke noundef ptr @_ZNK8WasmEdge8Executor8Executor15getMemInstByIdxERNS_7Runtime12StackManagerEj(ptr noundef nonnull align 8 dereferenceable(408) %1, ptr noundef nonnull align 8 dereferenceable(48) %2, i32 noundef %3)
          to label %8 unwind label %10

8:                                                ; preds = %6
  %9 = icmp ne ptr %7, null
  tail call void @llvm.assume(i1 %9)
  tail call void @_ZN8WasmEdge8Executor8Executor12atomicNotifyERNS_7Runtime8Instance14MemoryInstanceEjj(ptr dead_on_unwind writable sret(%"class.cxx20::expected.303") align 4 %0, ptr noundef nonnull align 8 dereferenceable(408) %1, ptr noundef nonnull align 8 dereferenceable(28) %7, i32 noundef %4, i32 noundef %5) #23
  ret void

10:                                               ; preds = %6
  %11 = landingpad { ptr, i32 }
          catch ptr null
  %12 = extractvalue { ptr, i32 } %11, 0
  tail call void @__clang_call_terminate(ptr %12) #24
  unreachable
}